; Function Attrs: nounwind uwtable
define noundef i32 @Saig_ManPhasePrefixLength(ptr noundef %0, i32 noundef %1, i32 noundef %2, ptr noundef writeonly %3) local_unnamed_addr #0 {
  %5 = tail call ptr @Saig_ManReachableTernary(ptr noundef %0, ptr noundef null, i32 noundef 0)
  %6 = icmp eq ptr %5, null
  br i1 %6, label %58, label %7

7:                                                ; preds = %4
  %8 = getelementptr inbounds nuw i8, ptr %5, i64 16
  %9 = load ptr, ptr %8, align 8, !tbaa !29
  %10 = getelementptr i8, ptr %9, i64 4
  %.val29 = load i32, ptr %10, align 4, !tbaa !25
  %11 = getelementptr i8, ptr %9, i64 8
  %.val30 = load ptr, ptr %11, align 8, !tbaa !28
  %12 = sext i32 %.val29 to i64
  %13 = getelementptr ptr, ptr %.val30, i64 %12
  %14 = getelementptr i8, ptr %13, i64 -8
  %15 = load ptr, ptr %14, align 8, !tbaa !43
  %16 = getelementptr inbounds nuw i8, ptr %5, i64 8
  %17 = load i32, ptr %16, align 8, !tbaa !24
  %18 = getelementptr inbounds nuw i8, ptr %5, i64 64
  %19 = load i32, ptr %18, align 8, !tbaa !34
  %20 = icmp sgt i32 %17, 0
  br i1 %20, label %.lr.ph.preheader.i.i, label %Saig_TsiStateHash.exit.i

.lr.ph.preheader.i.i:                             ; preds = %7
  %wide.trip.count.i.i = zext nneg i32 %17 to i64
  br label %.lr.ph.i.i

.lr.ph.i.i:                                       ; preds = %.lr.ph.i.i, %.lr.ph.preheader.i.i
  %indvars.iv.i.i = phi i64 [ 0, %.lr.ph.preheader.i.i ], [ %indvars.iv.next.i.i, %.lr.ph.i.i ]
  %.089.i.i = phi i32 [ 0, %.lr.ph.preheader.i.i ], [ %27, %.lr.ph.i.i ]
  %21 = getelementptr inbounds nuw i32, ptr %15, i64 %indvars.iv.i.i
  %22 = load i32, ptr %21, align 4, !tbaa !39
  %23 = and i64 %indvars.iv.i.i, 127
  %24 = getelementptr inbounds nuw [128 x i32], ptr @Saig_TsiStateHash.s_FPrimes, i64 0, i64 %23
  %25 = load i32, ptr %24, align 4, !tbaa !39
  %26 = mul i32 %25, %22
  %27 = xor i32 %26, %.089.i.i
  %indvars.iv.next.i.i = add nuw nsw i64 %indvars.iv.i.i, 1
  %exitcond.not.i.i = icmp eq i64 %indvars.iv.next.i.i, %wide.trip.count.i.i
  br i1 %exitcond.not.i.i, label %Saig_TsiStateHash.exit.i, label %.lr.ph.i.i, !llvm.loop !40

Saig_TsiStateHash.exit.i:                         ; preds = %.lr.ph.i.i, %7
  %.08.lcssa.i.i = phi i32 [ 0, %7 ], [ %27, %.lr.ph.i.i ]
  %28 = urem i32 %.08.lcssa.i.i, %19
  %29 = getelementptr inbounds nuw i8, ptr %5, i64 56
  %30 = load ptr, ptr %29, align 8, !tbaa !35
  %31 = sext i32 %28 to i64
  %32 = getelementptr inbounds ptr, ptr %30, i64 %31
  %.02025.i = load ptr, ptr %32, align 8, !tbaa !52
  %.not26.i = icmp eq ptr %.02025.i, null
  br i1 %.not26.i, label %Saig_TsiComputePrefix.exit, label %.lr.ph.i

.lr.ph.i:                                         ; preds = %Saig_TsiStateHash.exit.i
  %33 = sext i32 %17 to i64
  %34 = shl nsw i64 %33, 2
  br label %35

35:                                               ; preds = %42, %.lr.ph.i
  %.02027.i = phi ptr [ %.02025.i, %.lr.ph.i ], [ %.020.i, %42 ]
  %bcmp.i = tail call i32 @bcmp(ptr nonnull %.02027.i, ptr readonly %15, i64 %34)
  %.not21.i = icmp eq i32 %bcmp.i, 0
  br i1 %.not21.i, label %.preheader.i, label %42

.preheader.i:                                     ; preds = %35
  %36 = icmp sgt i32 %.val29, 0
  br i1 %36, label %.lr.ph29.i, label %Saig_TsiComputePrefix.exit

.lr.ph29.i:                                       ; preds = %.preheader.i
  %wide.trip.count.i = zext nneg i32 %.val29 to i64
  br label %37

37:                                               ; preds = %41, %.lr.ph29.i
  %indvars.iv.i = phi i64 [ 0, %.lr.ph29.i ], [ %indvars.iv.next.i, %41 ]
  %38 = getelementptr inbounds nuw ptr, ptr %.val30, i64 %indvars.iv.i
  %39 = load ptr, ptr %38, align 8, !tbaa !43
  %40 = icmp eq ptr %39, %.02027.i
  br i1 %40, label %.critedge.loopexit.split.loop.exit37.i, label %41

41:                                               ; preds = %37
  %indvars.iv.next.i = add nuw nsw i64 %indvars.iv.i, 1
  %exitcond.not.i = icmp eq i64 %indvars.iv.next.i, %wide.trip.count.i
  br i1 %exitcond.not.i, label %Saig_TsiComputePrefix.exit, label %37, !llvm.loop !53

42:                                               ; preds = %35
  %43 = getelementptr inbounds i32, ptr %.02027.i, i64 %33
  %.020.i = load ptr, ptr %43, align 8, !tbaa !52
  %.not.i = icmp eq ptr %.020.i, null
  br i1 %.not.i, label %Saig_TsiComputePrefix.exit, label %35, !llvm.loop !54

.critedge.loopexit.split.loop.exit37.i:           ; preds = %37
  %44 = trunc nuw nsw i64 %indvars.iv.i to i32
  br label %Saig_TsiComputePrefix.exit

Saig_TsiComputePrefix.exit:                       ; preds = %42, %41, %Saig_TsiStateHash.exit.i, %.preheader.i, %.critedge.loopexit.split.loop.exit37.i
  %.019.i = phi i32 [ -1, %.preheader.i ], [ -1, %Saig_TsiStateHash.exit.i ], [ %44, %.critedge.loopexit.split.loop.exit37.i ], [ -1, %41 ], [ -1, %42 ]
  %45 = xor i32 %.019.i, -1
  %46 = add i32 %.val29, %45
  %47 = tail call i32 @Saig_TsiCountNonXValuedRegisters(ptr noundef nonnull %5, i32 noundef %.019.i)
  %.not = icmp eq ptr %3, null
  br i1 %.not, label %50, label %48

48:                                               ; preds = %Saig_TsiComputePrefix.exit
  %49 = tail call ptr @Saig_TsiComputeTransient(ptr noundef nonnull %5, i32 noundef %.019.i)
  store ptr %49, ptr %3, align 8, !tbaa !102
  br label %50

50:                                               ; preds = %48, %Saig_TsiComputePrefix.exit
  %.not27 = icmp eq i32 %1, 0
  br i1 %.not27, label %55, label %51

51:                                               ; preds = %50
  %52 = getelementptr inbounds nuw i8, ptr %0, i64 104
  %53 = load i32, ptr %52, align 8, !tbaa !14
  %54 = tail call i32 (ptr, ...) @printf(ptr noundef nonnull dereferenceable(1) @.str.20, i32 noundef %.019.i, i32 noundef %46, i32 noundef %53, i32 noundef %47)
  br label %55

55:                                               ; preds = %51, %50
  %.not28 = icmp eq i32 %2, 0
  br i1 %.not28, label %57, label %56

56:                                               ; preds = %55
  tail call void @Saig_TsiPrintTraces(ptr noundef nonnull %5, i32 poison, i32 noundef %.019.i, i32 noundef %46)
  br label %57

57:                                               ; preds = %56, %55
  tail call void @Saig_TsiStop(ptr noundef nonnull %5)
  br label %58

58:                                               ; preds = %4, %57
  %.0 = phi i32 [ %.019.i, %57 ], [ 0, %4 ]
  ret i32 %.0
}